; Function Attrs: inlinehint mustprogress nounwind
define internal void @"_ZZNSt9once_flag18_Prepare_executionC1IZSt9call_onceIZN4mold9MultiGlob4findESt17basic_string_viewIcSt11char_traitsIcEEE3$_0JEEvRS_OT_DpOT0_EUlvE_EERSB_ENUlvE_8__invokeEv"() #12 align 2 {
  %1 = tail call align 8 ptr @llvm.threadlocal.address.p0(ptr align 8 @_ZSt15__once_callable)
  %2 = load ptr, ptr %1, align 8, !tbaa !14
  %.val.i = load ptr, ptr %2, align 8, !tbaa !871
  %.val.val.i = load ptr, ptr %.val.i, align 8, !tbaa !11
  %3 = getelementptr inbounds nuw i8, ptr %.val.val.i, i64 60
  store i8 1, ptr %3, align 4, !tbaa !109
  %4 = getelementptr inbounds nuw i8, ptr %.val.val.i, i64 24
  %5 = load ptr, ptr %4, align 8, !tbaa !15
  %.not.i.i.i.i.i.i = icmp eq ptr %5, null
  br i1 %.not.i.i.i.i.i.i, label %"_ZZNSt9once_flag18_Prepare_executionC1IZSt9call_onceIZN4mold9MultiGlob4findESt17basic_string_viewIcSt11char_traitsIcEEE3$_0JEEvRS_OT_DpOT0_EUlvE_EERSB_ENKUlvE_clEv.exit", label %6

6:                                                ; preds = %0
  tail call void @_ZN4mold9MultiGlob16fix_suffix_linksERNS0_8TrieNodeE(ptr noundef nonnull align 8 dereferenceable(62) %.val.val.i, ptr noundef nonnull align 8 dereferenceable(2064) %5)
  tail call void @_ZN4mold9MultiGlob10fix_valuesEv(ptr noundef nonnull align 8 dereferenceable(62) %.val.val.i)
  %7 = getelementptr inbounds nuw i8, ptr %.val.val.i, i64 61
  store i8 1, ptr %7, align 1, !tbaa !23
  %8 = load ptr, ptr %4, align 8, !tbaa !15
  %9 = getelementptr inbounds nuw i8, ptr %8, i64 16
  br label %12

10:                                               ; preds = %12
  %11 = add nuw nsw i64 %.04.i.i.i.i.i.i, 1
  %exitcond.not.i.i.i.i.i.i = icmp eq i64 %11, 256
  br i1 %exitcond.not.i.i.i.i.i.i, label %"_ZZNSt9once_flag18_Prepare_executionC1IZSt9call_onceIZN4mold9MultiGlob4findESt17basic_string_viewIcSt11char_traitsIcEEE3$_0JEEvRS_OT_DpOT0_EUlvE_EERSB_ENKUlvE_clEv.exit", label %12, !llvm.loop !110

12:                                               ; preds = %10, %6
  %.04.i.i.i.i.i.i = phi i64 [ 1, %6 ], [ %11, %10 ]
  %13 = getelementptr inbounds nuw [256 x %"class.std::unique_ptr"], ptr %9, i64 0, i64 %.04.i.i.i.i.i.i
  %14 = load ptr, ptr %13, align 8, !tbaa !15
  %.not3.i.i.i.i.i.i = icmp eq ptr %14, null
  br i1 %.not3.i.i.i.i.i.i, label %10, label %15

15:                                               ; preds = %12
  store i8 0, ptr %7, align 1, !tbaa !23
  br label %"_ZZNSt9once_flag18_Prepare_executionC1IZSt9call_onceIZN4mold9MultiGlob4findESt17basic_string_viewIcSt11char_traitsIcEEE3$_0JEEvRS_OT_DpOT0_EUlvE_EERSB_ENKUlvE_clEv.exit"

"_ZZNSt9once_flag18_Prepare_executionC1IZSt9call_onceIZN4mold9MultiGlob4findESt17basic_string_viewIcSt11char_traitsIcEEE3$_0JEEvRS_OT_DpOT0_EUlvE_EERSB_ENKUlvE_clEv.exit": ; preds = %10, %0, %15
  ret void
}